; Function Attrs: mustprogress null_pointer_is_valid sspstrong uwtable
define void @_ZN16ExpertPacketItem8groupKeyEb(ptr dead_on_unwind noalias writable sret(%class.QString) align 8 %0, ptr noundef align 8 dereferenceable_or_null(136) %1, i1 noundef zeroext %2) local_unnamed_addr #0 align 2 personality ptr @__gxx_personality_v0 {
  %4 = alloca %class.QString, align 8
  %5 = alloca %class.QString, align 8
  %6 = getelementptr inbounds nuw i8, ptr %1, i64 16
  %7 = load i32, ptr %6, align 8
  %8 = getelementptr inbounds nuw i8, ptr %1, i64 12
  %9 = load i32, ptr %8, align 4
  %10 = getelementptr inbounds nuw i8, ptr %1, i64 24
  call void @llvm.lifetime.start.p0(i64 24, ptr nonnull %4) #26
  %11 = invoke noundef zeroext i1 @_ZNK10QByteArray6isNullEv(ptr noundef nonnull align 8 dereferenceable(24) dereferenceable_or_null(24) %10)
          to label %_ZN7QStringC2ERK10QByteArray.exit unwind label %12, !noalias !8

12:                                               ; preds = %3
  %13 = landingpad { ptr, i32 }
          catch ptr null
  %14 = extractvalue { ptr, i32 } %13, 0
  tail call void @__clang_call_terminate(ptr %14) #28
  unreachable

_ZN7QStringC2ERK10QByteArray.exit:                ; preds = %3
  %15 = getelementptr inbounds nuw i8, ptr %1, i64 32
  %16 = load ptr, ptr %15, align 8, !noalias !8
  %.not.i.i.i.i = icmp eq ptr %16, null
  %spec.select.i.i.i.i = select i1 %.not.i.i.i.i, ptr @_ZN10QByteArray6_emptyE, ptr %16
  %17 = select i1 %11, ptr null, ptr %spec.select.i.i.i.i
  %18 = getelementptr inbounds nuw i8, ptr %1, i64 40
  %19 = load i64, ptr %18, align 8, !noalias !8
  call void @_ZN7QString8fromUtf8E14QByteArrayView(ptr dead_on_unwind nonnull writable sret(%class.QString) align 8 %4, i64 %19, ptr %17)
  %20 = load ptr, ptr %4, align 8
  store ptr %20, ptr %5, align 8
  %21 = getelementptr inbounds nuw i8, ptr %5, i64 8
  %22 = getelementptr inbounds nuw i8, ptr %4, i64 8
  %23 = load ptr, ptr %22, align 8
  store ptr %23, ptr %21, align 8
  %24 = getelementptr inbounds nuw i8, ptr %5, i64 16
  %25 = getelementptr inbounds nuw i8, ptr %4, i64 16
  %26 = load i64, ptr %25, align 8
  store i64 %26, ptr %24, align 8
  call void @llvm.lifetime.end.p0(i64 24, ptr nonnull %4) #26
  %27 = getelementptr inbounds nuw i8, ptr %1, i64 20
  %28 = load i32, ptr %27, align 4
  invoke void @_ZN16ExpertPacketItem8groupKeyEbii7QStringi(ptr dead_on_unwind writable sret(%class.QString) align 8 %0, i1 noundef zeroext %2, i32 noundef %7, i32 noundef %9, ptr noundef nonnull %5, i32 noundef %28)
          to label %29 unwind label %34

29:                                               ; preds = %_ZN7QStringC2ERK10QByteArray.exit
  %30 = load ptr, ptr %5, align 8
  %.not.i.i.i = icmp eq ptr %30, null
  br i1 %.not.i.i.i, label %_ZN7QStringD2Ev.exit, label %_ZN17QArrayDataPointerIDsE5derefEv.exit.i.i

_ZN17QArrayDataPointerIDsE5derefEv.exit.i.i:      ; preds = %29
  %31 = atomicrmw sub ptr %30, i32 1 seq_cst, align 4
  %.not.i.i = icmp eq i32 %31, 1
  br i1 %.not.i.i, label %32, label %_ZN7QStringD2Ev.exit

32:                                               ; preds = %_ZN17QArrayDataPointerIDsE5derefEv.exit.i.i
  %33 = load ptr, ptr %5, align 8
  call void @_ZN10QArrayData10deallocateEPS_xx(ptr noundef %33, i64 noundef 2, i64 noundef 8) #26
  br label %_ZN7QStringD2Ev.exit

_ZN7QStringD2Ev.exit:                             ; preds = %29, %_ZN17QArrayDataPointerIDsE5derefEv.exit.i.i, %32
  ret void

34:                                               ; preds = %_ZN7QStringC2ERK10QByteArray.exit
  %35 = landingpad { ptr, i32 }
          cleanup
  %36 = load ptr, ptr %5, align 8
  %.not.i.i.i3 = icmp eq ptr %36, null
  br i1 %.not.i.i.i3, label %_ZN7QStringD2Ev.exit6, label %_ZN17QArrayDataPointerIDsE5derefEv.exit.i.i4

_ZN17QArrayDataPointerIDsE5derefEv.exit.i.i4:     ; preds = %34
  %37 = atomicrmw sub ptr %36, i32 1 seq_cst, align 4
  %.not.i.i5 = icmp eq i32 %37, 1
  br i1 %.not.i.i5, label %38, label %_ZN7QStringD2Ev.exit6

38:                                               ; preds = %_ZN17QArrayDataPointerIDsE5derefEv.exit.i.i4
  %39 = load ptr, ptr %5, align 8
  call void @_ZN10QArrayData10deallocateEPS_xx(ptr noundef %39, i64 noundef 2, i64 noundef 8) #26
  br label %_ZN7QStringD2Ev.exit6

_ZN7QStringD2Ev.exit6:                            ; preds = %34, %_ZN17QArrayDataPointerIDsE5derefEv.exit.i.i4, %38
  resume { ptr, i32 } %35
}